; Function Attrs: mustprogress nounwind uwtable
define void @_ZN6icu_7518BreakEngineWrapperD2Ev(ptr noundef nonnull align 8 dereferenceable(16) %this) unnamed_addr #0 align 2 {
entry:
  store ptr getelementptr inbounds ({ [7 x ptr] }, ptr @_ZTVN6icu_7518BreakEngineWrapperE, i64 0, i32 0, i64 2), ptr %this, align 8
  %delegate = getelementptr inbounds i8, ptr %this, i64 8
  %0 = load ptr, ptr %delegate, align 8
  %isnull.i = icmp eq ptr %0, null
  br i1 %isnull.i, label %_ZN6icu_7512LocalPointerINS_19ExternalBreakEngineEED2Ev.exit, label %delete.notnull.i

delete.notnull.i:                                 ; preds = %entry
  %vtable.i = load ptr, ptr %0, align 8
  %vfn.i = getelementptr inbounds i8, ptr %vtable.i, i64 8
  %1 = load ptr, ptr %vfn.i, align 8
  tail call void %1(ptr noundef nonnull align 8 dereferenceable(8) %0) #13
  br label %_ZN6icu_7512LocalPointerINS_19ExternalBreakEngineEED2Ev.exit

_ZN6icu_7512LocalPointerINS_19ExternalBreakEngineEED2Ev.exit: ; preds = %entry, %delete.notnull.i
  tail call void @_ZN6icu_757UObjectD2Ev(ptr noundef nonnull align 8 dereferenceable(8) %this) #13
  ret void
}